target datalayout = "e-m:e-p270:32:32-p271:32:32-p272:64:64-i64:64-i128:128-f80:128-n8:16:32:64-S128"
target triple = "x86_64-unknown-linux-gnu"

%"class.zmq::stream_listener_base_t" = type { %"class.zmq::own_t.base", %"class.zmq::io_object_t", i32, ptr, ptr, %"class.std::__cxx11::basic_string" }
%"class.zmq::own_t.base" = type <{ %"class.zmq::object_t.base", [4 x i8], %"struct.zmq::options_t", i8, [7 x i8], %"class.zmq::atomic_counter_t", i64, ptr, %"class.std::set.28", i32 }>
%"class.zmq::object_t.base" = type <{ ptr, ptr, i32 }>
%"struct.zmq::options_t" = type { i32, i32, i64, i8, [256 x i8], i32, i32, i32, i32, i32, i32, i32, i32, i8, %"struct.zmq::atomic_value_t", i32, i32, i32, i32, i32, i32, i64, i32, i32, i8, i32, i8, i8, i8, i8, i8, %"class.std::__cxx11::basic_string", %"class.std::__cxx11::basic_string", %"class.std::__cxx11::basic_string", i32, i32, i32, i32, %"class.std::vector", %"class.std::set", %"class.std::set", %"class.std::set.6", i32, i32, %"class.std::__cxx11::basic_string", %"class.std::__cxx11::basic_string", %"class.std::__cxx11::basic_string", [32 x i8], [32 x i8], [32 x i8], %"class.std::__cxx11::basic_string", %"class.std::__cxx11::basic_string", i32, i32, i8, i32, i8, i32, i8, i16, i32, i32, i32, %"class.std::__cxx11::basic_string", i8, i8, i8, i32, i32, i8, i32, %"class.std::map", i32, %"class.std::__cxx11::basic_string", %"class.std::__cxx11::basic_string", %"class.std::__cxx11::basic_string", %"class.std::__cxx11::basic_string", i8, %"class.std::vector.21", i8, %"class.std::vector.21", i8, %"class.std::vector.21", i8, i32, i8, i32, i32, i32, i32, i32, i8, i32 }
%"struct.zmq::atomic_value_t" = type { %"struct.std::atomic" }
%"struct.std::atomic" = type { %"struct.std::__atomic_base" }
%"struct.std::__atomic_base" = type { i32 }
%"class.std::vector" = type { %"struct.std::_Vector_base" }
%"struct.std::_Vector_base" = type { %"struct.std::_Vector_base<zmq::tcp_address_mask_t, std::allocator<zmq::tcp_address_mask_t>>::_Vector_impl" }
%"struct.std::_Vector_base<zmq::tcp_address_mask_t, std::allocator<zmq::tcp_address_mask_t>>::_Vector_impl" = type { %"struct.std::_Vector_base<zmq::tcp_address_mask_t, std::allocator<zmq::tcp_address_mask_t>>::_Vector_impl_data" }
%"struct.std::_Vector_base<zmq::tcp_address_mask_t, std::allocator<zmq::tcp_address_mask_t>>::_Vector_impl_data" = type { ptr, ptr, ptr }
%"class.std::set" = type { %"class.std::_Rb_tree" }
%"class.std::_Rb_tree" = type { %"struct.std::_Rb_tree<unsigned int, unsigned int, std::_Identity<unsigned int>, std::less<unsigned int>>::_Rb_tree_impl" }
%"struct.std::_Rb_tree<unsigned int, unsigned int, std::_Identity<unsigned int>, std::less<unsigned int>>::_Rb_tree_impl" = type { %"struct.std::_Rb_tree_key_compare", %"struct.std::_Rb_tree_header" }
%"struct.std::_Rb_tree_key_compare" = type { %"struct.std::less" }
%"struct.std::less" = type { i8 }
%"struct.std::_Rb_tree_header" = type { %"struct.std::_Rb_tree_node_base", i64 }
%"struct.std::_Rb_tree_node_base" = type { i32, ptr, ptr, ptr }
%"class.std::set.6" = type { %"class.std::_Rb_tree.7" }
%"class.std::_Rb_tree.7" = type { %"struct.std::_Rb_tree<int, int, std::_Identity<int>, std::less<int>>::_Rb_tree_impl" }
%"struct.std::_Rb_tree<int, int, std::_Identity<int>, std::less<int>>::_Rb_tree_impl" = type { %"struct.std::_Rb_tree_key_compare.11", %"struct.std::_Rb_tree_header" }
%"struct.std::_Rb_tree_key_compare.11" = type { %"struct.std::less.12" }
%"struct.std::less.12" = type { i8 }
%"class.std::map" = type { %"class.std::_Rb_tree.14" }
%"class.std::_Rb_tree.14" = type { %"struct.std::_Rb_tree<std::__cxx11::basic_string<char>, std::pair<const std::__cxx11::basic_string<char>, std::__cxx11::basic_string<char>>, std::_Select1st<std::pair<const std::__cxx11::basic_string<char>, std::__cxx11::basic_string<char>>>, std::less<std::__cxx11::basic_string<char>>>::_Rb_tree_impl" }
%"struct.std::_Rb_tree<std::__cxx11::basic_string<char>, std::pair<const std::__cxx11::basic_string<char>, std::__cxx11::basic_string<char>>, std::_Select1st<std::pair<const std::__cxx11::basic_string<char>, std::__cxx11::basic_string<char>>>, std::less<std::__cxx11::basic_string<char>>>::_Rb_tree_impl" = type { %"struct.std::_Rb_tree_key_compare.18", %"struct.std::_Rb_tree_header" }
%"struct.std::_Rb_tree_key_compare.18" = type { %"struct.std::less.19" }
%"struct.std::less.19" = type { i8 }
%"class.std::vector.21" = type { %"struct.std::_Vector_base.22" }
%"struct.std::_Vector_base.22" = type { %"struct.std::_Vector_base<unsigned char, std::allocator<unsigned char>>::_Vector_impl" }
%"struct.std::_Vector_base<unsigned char, std::allocator<unsigned char>>::_Vector_impl" = type { %"struct.std::_Vector_base<unsigned char, std::allocator<unsigned char>>::_Vector_impl_data" }
%"struct.std::_Vector_base<unsigned char, std::allocator<unsigned char>>::_Vector_impl_data" = type { ptr, ptr, ptr }
%"class.zmq::atomic_counter_t" = type { %"struct.std::atomic.26", [4 x i8] }
%"struct.std::atomic.26" = type { %"struct.std::__atomic_base.27" }
%"struct.std::__atomic_base.27" = type { i32 }
%"class.std::set.28" = type { %"class.std::_Rb_tree.29" }
%"class.std::_Rb_tree.29" = type { %"struct.std::_Rb_tree<zmq::own_t *, zmq::own_t *, std::_Identity<zmq::own_t *>, std::less<zmq::own_t *>>::_Rb_tree_impl" }
%"struct.std::_Rb_tree<zmq::own_t *, zmq::own_t *, std::_Identity<zmq::own_t *>, std::less<zmq::own_t *>>::_Rb_tree_impl" = type { %"struct.std::_Rb_tree_key_compare.33", %"struct.std::_Rb_tree_header" }
%"struct.std::_Rb_tree_key_compare.33" = type { %"struct.std::less.34" }
%"struct.std::less.34" = type { i8 }
%"class.zmq::io_object_t" = type { %"struct.zmq::i_poll_events", ptr }
%"struct.zmq::i_poll_events" = type { ptr }
%"class.std::__cxx11::basic_string" = type { %"struct.std::__cxx11::basic_string<char>::_Alloc_hider", i64, %union.anon }
%"struct.std::__cxx11::basic_string<char>::_Alloc_hider" = type { ptr }
%union.anon = type { i64, [8 x i8] }
%"union.zmq::ip_addr_t" = type { %struct.sockaddr_in6 }
%struct.sockaddr_in6 = type { i16, i16, i32, %struct.in6_addr, i32 }
%struct.in6_addr = type { %union.anon.36 }
%union.anon.36 = type { [4 x i32] }
%"class.zmq::own_t" = type <{ %"class.zmq::object_t.base", [4 x i8], %"struct.zmq::options_t", i8, [7 x i8], %"class.zmq::atomic_counter_t", i64, ptr, %"class.std::set.28", i32, [4 x i8] }>
%"class.zmq::tcp_address_t" = type <{ %"union.zmq::ip_addr_t", %"union.zmq::ip_addr_t", i8, [3 x i8] }>

@stderr = external global ptr, align 8
@.str.2 = private unnamed_addr constant [111 x i8] c"generated/home/dtcxzyw/WorkSpace/Projects/compilers/llvm-opt-benchmark/bench/libzmq/libzmq/src/ws_listener.cpp\00", align 1
@.str.3 = private unnamed_addr constant [12 x i8] c"%s (%s:%d)\0A\00", align 1

; Function Attrs: mustprogress uwtable
define noundef i32 @_ZN3zmq13ws_listener_t13create_socketEPKc(ptr noundef nonnull align 8 dereferenceable(1632) %this, ptr noundef %addr_) #0 align 2 {
entry:
  %retval = alloca i32, align 4
  %this.addr = alloca ptr, align 8
  %addr_.addr = alloca ptr, align 8
  %address = alloca %"class.zmq::tcp_address_t", align 4
  %flag = alloca i32, align 4
  %rc = alloca i32, align 4
  %errstr = alloca ptr, align 8
  %err = alloca i32, align 4
  store ptr %this, ptr %this.addr, align 8
  store ptr %addr_, ptr %addr_.addr, align 8
  %this1 = load ptr, ptr %this.addr, align 8
  call void @_ZN3zmq13tcp_address_tC1Ev(ptr noundef nonnull align 4 dereferenceable(57) %address)
  %0 = load ptr, ptr %addr_.addr, align 8
  %options = getelementptr inbounds %"class.zmq::own_t", ptr %this1, i32 0, i32 2
  %call = call noundef i32 @_ZN3zmq15tcp_open_socketEPKcRKNS_9options_tEbbPNS_13tcp_address_tE(ptr noundef %0, ptr noundef nonnull align 8 dereferenceable(1336) %options, i1 noundef zeroext true, i1 noundef zeroext true, ptr noundef %address)
  %_s = getelementptr inbounds %"class.zmq::stream_listener_base_t", ptr %this1, i32 0, i32 2
  store i32 %call, ptr %_s, align 8
  %_s2 = getelementptr inbounds %"class.zmq::stream_listener_base_t", ptr %this1, i32 0, i32 2
  %1 = load i32, ptr %_s2, align 8
  %cmp = icmp eq i32 %1, -1
  br i1 %cmp, label %if.then, label %if.end

if.then:                                          ; preds = %entry
  store i32 -1, ptr %retval, align 4
  br label %return

if.end:                                           ; preds = %entry
  %_s3 = getelementptr inbounds %"class.zmq::stream_listener_base_t", ptr %this1, i32 0, i32 2
  %2 = load i32, ptr %_s3, align 8
  call void @_ZN3zmq26make_socket_noninheritableEi(i32 noundef %2)
  store i32 1, ptr %flag, align 4
  %_s4 = getelementptr inbounds %"class.zmq::stream_listener_base_t", ptr %this1, i32 0, i32 2
  %3 = load i32, ptr %_s4, align 8
  %call5 = call i32 @setsockopt(i32 noundef %3, i32 noundef 1, i32 noundef 2, ptr noundef %flag, i32 noundef 4) #12
  store i32 %call5, ptr %rc, align 4
  br label %do.body

do.body:                                          ; preds = %if.end
  %4 = load i32, ptr %rc, align 4
  %cmp6 = icmp eq i32 %4, 0
  %lnot = xor i1 %cmp6, true
  br i1 %lnot, label %if.then7, label %if.end12

if.then7:                                         ; preds = %do.body
  %call8 = call ptr @__errno_location() #15
  %5 = load i32, ptr %call8, align 4
  %call9 = call ptr @strerror(i32 noundef %5) #12
  store ptr %call9, ptr %errstr, align 8
  %6 = load ptr, ptr @stderr, align 8
  %7 = load ptr, ptr %errstr, align 8
  %call10 = call i32 (ptr, ptr, ...) @fprintf(ptr noundef %6, ptr noundef @.str.3, ptr noundef %7, ptr noundef @.str.2, i32 noundef 140)
  %8 = load ptr, ptr @stderr, align 8
  %call11 = call i32 @fflush(ptr noundef %8)
  %9 = load ptr, ptr %errstr, align 8
  call void @_ZN3zmq9zmq_abortEPKc(ptr noundef %9)
  br label %if.end12

if.end12:                                         ; preds = %if.then7, %do.body
  br label %do.end

do.end:                                           ; preds = %if.end12
  %_s13 = getelementptr inbounds %"class.zmq::stream_listener_base_t", ptr %this1, i32 0, i32 2
  %10 = load i32, ptr %_s13, align 8
  %call14 = call noundef ptr @_ZNK3zmq13tcp_address_t4addrEv(ptr noundef nonnull align 4 dereferenceable(57) %address)
  %call15 = call noundef i32 @_ZNK3zmq13tcp_address_t7addrlenEv(ptr noundef nonnull align 4 dereferenceable(57) %address)
  %call16 = call i32 @bind(i32 noundef %10, ptr noundef %call14, i32 noundef %call15) #12
  store i32 %call16, ptr %rc, align 4
  %11 = load i32, ptr %rc, align 4
  %cmp17 = icmp ne i32 %11, 0
  br i1 %cmp17, label %if.then18, label %if.end19

if.then18:                                        ; preds = %do.end
  br label %error

if.end19:                                         ; preds = %do.end
  %_s20 = getelementptr inbounds %"class.zmq::stream_listener_base_t", ptr %this1, i32 0, i32 2
  %12 = load i32, ptr %_s20, align 8
  %options21 = getelementptr inbounds %"class.zmq::own_t", ptr %this1, i32 0, i32 2
  %backlog = getelementptr inbounds %"struct.zmq::options_t", ptr %options21, i32 0, i32 20
  %13 = load i32, ptr %backlog, align 8
  %call22 = call i32 @listen(i32 noundef %12, i32 noundef %13) #12
  store i32 %call22, ptr %rc, align 4
  %14 = load i32, ptr %rc, align 4
  %cmp23 = icmp ne i32 %14, 0
  br i1 %cmp23, label %if.then24, label %if.end25

if.then24:                                        ; preds = %if.end19
  br label %error

if.end25:                                         ; preds = %if.end19
  store i32 0, ptr %retval, align 4
  br label %return

error:                                            ; preds = %if.then24, %if.then18
  %call26 = call ptr @__errno_location() #15
  %15 = load i32, ptr %call26, align 4
  store i32 %15, ptr %err, align 4
  %call27 = call noundef i32 @_ZN3zmq22stream_listener_base_t5closeEv(ptr noundef nonnull align 8 dereferenceable(1520) %this1)
  %16 = load i32, ptr %err, align 4
  %call28 = call ptr @__errno_location() #15
  store i32 %16, ptr %call28, align 4
  store i32 -1, ptr %retval, align 4
  br label %return

return:                                           ; preds = %error, %if.end25, %if.then
  %17 = load i32, ptr %retval, align 4
  ret i32 %17
}