; Function Attrs: mustprogress uwtable
define noundef i32 @_ZN3zmq13ws_listener_t13create_socketEPKc(ptr noundef nonnull align 8 dereferenceable(1632) %this, ptr noundef %addr_) local_unnamed_addr #0 align 2 {
entry:
  %address = alloca %"class.zmq::tcp_address_t", align 4
  %flag = alloca i32, align 4
  call void @_ZN3zmq13tcp_address_tC1Ev(ptr noundef nonnull align 4 dereferenceable(57) %address)
  %options = getelementptr inbounds i8, ptr %this, i64 24
  %call = call noundef i32 @_ZN3zmq15tcp_open_socketEPKcRKNS_9options_tEbbPNS_13tcp_address_tE(ptr noundef %addr_, ptr noundef nonnull align 8 dereferenceable(1336) %options, i1 noundef zeroext true, i1 noundef zeroext true, ptr noundef nonnull %address)
  %_s = getelementptr inbounds i8, ptr %this, i64 1464
  store i32 %call, ptr %_s, align 8
  %cmp = icmp eq i32 %call, -1
  br i1 %cmp, label %return, label %if.end

if.end:                                           ; preds = %entry
  call void @_ZN3zmq26make_socket_noninheritableEi(i32 noundef %call)
  store i32 1, ptr %flag, align 4
  %0 = load i32, ptr %_s, align 8
  %call5 = call i32 @setsockopt(i32 noundef %0, i32 noundef 1, i32 noundef 2, ptr noundef nonnull %flag, i32 noundef 4) #14
  %cmp6.not = icmp eq i32 %call5, 0
  br i1 %cmp6.not, label %do.end, label %if.then7

if.then7:                                         ; preds = %if.end
  %call8 = tail call ptr @__errno_location() #17
  %1 = load i32, ptr %call8, align 4
  %call9 = call ptr @strerror(i32 noundef %1) #14
  %2 = load ptr, ptr @stderr, align 8
  %call10 = call i32 (ptr, ptr, ...) @fprintf(ptr noundef %2, ptr noundef nonnull @.str.3, ptr noundef %call9, ptr noundef nonnull @.str.2, i32 noundef 140) #13
  %3 = load ptr, ptr @stderr, align 8
  %call11 = call i32 @fflush(ptr noundef %3)
  call void @_ZN3zmq9zmq_abortEPKc(ptr noundef %call9)
  br label %do.end

do.end:                                           ; preds = %if.end, %if.then7
  %4 = load i32, ptr %_s, align 8
  %call14 = call noundef ptr @_ZNK3zmq13tcp_address_t4addrEv(ptr noundef nonnull align 4 dereferenceable(57) %address)
  %call15 = call noundef i32 @_ZNK3zmq13tcp_address_t7addrlenEv(ptr noundef nonnull align 4 dereferenceable(57) %address)
  %call16 = call i32 @bind(i32 noundef %4, ptr noundef %call14, i32 noundef %call15) #14
  %cmp17.not = icmp eq i32 %call16, 0
  br i1 %cmp17.not, label %if.end19, label %error

if.end19:                                         ; preds = %do.end
  %5 = load i32, ptr %_s, align 8
  %backlog = getelementptr inbounds i8, ptr %this, i64 360
  %6 = load i32, ptr %backlog, align 8
  %call22 = call i32 @listen(i32 noundef %5, i32 noundef %6) #14
  %cmp23.not = icmp eq i32 %call22, 0
  br i1 %cmp23.not, label %return, label %error

error:                                            ; preds = %if.end19, %do.end
  %call26 = tail call ptr @__errno_location() #17
  %7 = load i32, ptr %call26, align 4
  %call27 = call noundef i32 @_ZN3zmq22stream_listener_base_t5closeEv(ptr noundef nonnull align 8 dereferenceable(1520) %this)
  store i32 %7, ptr %call26, align 4
  br label %return

return:                                           ; preds = %if.end19, %entry, %error
  %retval.0 = phi i32 [ -1, %error ], [ -1, %entry ], [ 0, %if.end19 ]
  ret i32 %retval.0
}